target datalayout = "e-m:e-p270:32:32-p271:32:32-p272:64:64-i64:64-i128:128-f80:128-n8:16:32:64-S128"
target triple = "x86_64-unknown-linux-gnu"

; Function Attrs: mustprogress nounwind uwtable
define noundef zeroext i1 @_ZN6google8protobuf33FeatureSet_Utf8Validation_IsValidEi(i32 noundef %value) #5 {
entry:
  %value.addr = alloca i32, align 4
  store i32 %value, ptr %value.addr, align 4
  %0 = load i32, ptr %value.addr, align 4
  %cmp = icmp sle i32 0, %0
  br i1 %cmp, label %land.lhs.true, label %land.end

land.lhs.true:                                    ; preds = %entry
  %1 = load i32, ptr %value.addr, align 4
  %cmp1 = icmp sle i32 %1, 3
  br i1 %cmp1, label %land.rhs, label %land.end

land.rhs:                                         ; preds = %land.lhs.true
  %2 = load i32, ptr %value.addr, align 4
  %shr = lshr i32 13, %2
  %and = and i32 %shr, 1
  %cmp2 = icmp ne i32 %and, 0
  br label %land.end

land.end:                                         ; preds = %land.rhs, %land.lhs.true, %entry
  %3 = phi i1 [ false, %land.lhs.true ], [ false, %entry ], [ %cmp2, %land.rhs ]
  ret i1 %3
}