; Function Attrs: mustprogress nofree norecurse nosync nounwind willreturn memory(none) uwtable
define noundef zeroext i1 @_ZN6google8protobuf33FeatureSet_Utf8Validation_IsValidEi(i32 noundef %value) local_unnamed_addr #4 {
entry:
  %or.cond = icmp ult i32 %value, 4
  %shr = lshr i32 13, %value
  %and = and i32 %shr, 1
  %cmp2 = icmp ne i32 %and, 0
  %0 = select i1 %or.cond, i1 %cmp2, i1 false
  ret i1 %0
}